target datalayout = "e-m:e-p270:32:32-p271:32:32-p272:64:64-i64:64-i128:128-f80:128-n8:16:32:64-S128"
target triple = "x86_64-pc-linux-gnu"

@api_names = internal global [5 x ptr] [ptr @.str.69, ptr @.str.70, ptr @.str.71, ptr @.str.72, ptr @.str.73], align 16

; Function Attrs: nounwind uwtable
define i32 @gvplugin_api(ptr noundef %0) #0 {
  %2 = alloca i32, align 4
  %3 = alloca ptr, align 8
  %4 = alloca i64, align 8
  %5 = alloca i32, align 4
  store ptr %0, ptr %3, align 8, !tbaa !3
  call void @llvm.lifetime.start.p0(i64 8, ptr %4) #13
  store i64 0, ptr %4, align 8, !tbaa !8
  br label %6

6:                                                ; preds = %21, %1
  %7 = load i64, ptr %4, align 8, !tbaa !8
  %8 = icmp ult i64 %7, 5
  br i1 %8, label %10, label %9

9:                                                ; preds = %6
  store i32 2, ptr %5, align 4
  br label %24

10:                                               ; preds = %6
  %11 = load ptr, ptr %3, align 8, !tbaa !3
  %12 = load i64, ptr %4, align 8, !tbaa !8
  %13 = getelementptr inbounds nuw [5 x ptr], ptr @api_names, i64 0, i64 %12
  %14 = load ptr, ptr %13, align 8, !tbaa !3
  %15 = call i32 @strcmp(ptr noundef %11, ptr noundef %14) #14
  %16 = icmp eq i32 %15, 0
  br i1 %16, label %17, label %20

17:                                               ; preds = %10
  %18 = load i64, ptr %4, align 8, !tbaa !8
  %19 = trunc i64 %18 to i32
  store i32 %19, ptr %2, align 4
  store i32 1, ptr %5, align 4
  br label %24

20:                                               ; preds = %10
  br label %21

21:                                               ; preds = %20
  %22 = load i64, ptr %4, align 8, !tbaa !8
  %23 = add i64 %22, 1
  store i64 %23, ptr %4, align 8, !tbaa !8
  br label %6, !llvm.loop !10

24:                                               ; preds = %17, %9
  call void @llvm.lifetime.end.p0(i64 8, ptr %4) #13
  %25 = load i32, ptr %5, align 4
  switch i32 %25, label %29 [
    i32 2, label %26
    i32 1, label %27
  ]

26:                                               ; preds = %24
  store i32 -1, ptr %2, align 4
  br label %27

27:                                               ; preds = %26, %24
  %28 = load i32, ptr %2, align 4
  ret i32 %28

29:                                               ; preds = %24
  unreachable
}