; Function Attrs: nofree nounwind memory(read, inaccessiblemem: none) uwtable
define i32 @gvplugin_api(ptr noundef readonly captures(none) %0) local_unnamed_addr #0 {
  br label %2

2:                                                ; preds = %1, %9
  %.069 = phi i64 [ 0, %1 ], [ %10, %9 ]
  %3 = getelementptr inbounds nuw [5 x ptr], ptr @api_names, i64 0, i64 %.069
  %4 = load ptr, ptr %3, align 8, !tbaa !3
  %5 = tail call i32 @strcmp(ptr noundef nonnull dereferenceable(1) %0, ptr noundef nonnull dereferenceable(1) %4) #24
  %6 = icmp eq i32 %5, 0
  br i1 %6, label %7, label %9

7:                                                ; preds = %2
  %8 = trunc nuw nsw i64 %.069 to i32
  br label %.loopexit

9:                                                ; preds = %2
  %10 = add nuw nsw i64 %.069, 1
  %exitcond = icmp eq i64 %10, 5
  br i1 %exitcond, label %.loopexit, label %2, !llvm.loop !8

.loopexit:                                        ; preds = %9, %7
  %spec.select = phi i32 [ %8, %7 ], [ -1, %9 ]
  ret i32 %spec.select
}